; Function Attrs: mustprogress nofree norecurse nosync nounwind willreturn memory(read, inaccessiblemem: none) uwtable
define dso_local noundef i32 @_ZNK4Luau7CodeGen3A6413IrLoweringA646uintOpENS0_4IrOpE(ptr noundef nonnull readonly align 8 captures(none) dereferenceable(1497) %0, i32 %1) local_unnamed_addr #4 align 2 {
  %3 = getelementptr inbounds nuw i8, ptr %0, i64 16
  %4 = load ptr, ptr %3, align 8, !tbaa !64
  %5 = getelementptr inbounds nuw i8, ptr %4, i64 48
  %6 = lshr i32 %1, 4
  %7 = zext nneg i32 %6 to i64
  %8 = load ptr, ptr %5, align 8, !tbaa !65
  %9 = getelementptr inbounds nuw %"struct.Luau::CodeGen::IrConst", ptr %8, i64 %7, i32 1
  %10 = load i32, ptr %9, align 8, !tbaa !43
  ret i32 %10
}